; Function Attrs: mustprogress uwtable
define dso_local noundef ptr @_ZNK17ExpressionFuncall5cloneEv(ptr nocapture noundef nonnull readonly align 8 dereferenceable(32) %0) unnamed_addr #3 align 2 personality ptr @__gxx_personality_v0 {
  %2 = getelementptr inbounds i8, ptr %0, i64 24
  %3 = load ptr, ptr %2, align 8
  %4 = load ptr, ptr %3, align 8
  %5 = getelementptr inbounds i8, ptr %4, i64 16
  %6 = load ptr, ptr %5, align 8
  %7 = tail call noundef ptr %6(ptr noundef nonnull align 8 dereferenceable(56) %3)
  %8 = tail call noalias noundef nonnull dereferenceable(32) ptr @_Znwm(i64 noundef 32) #17
  invoke void @_ZN10ExpressionC2E9eTermType(ptr noundef nonnull align 8 dereferenceable(24) %8, i32 noundef 2)
          to label %9 unwind label %11

9:                                                ; preds = %1
  store ptr getelementptr inbounds ({ [24 x ptr] }, ptr @_ZTV17ExpressionFuncall, i64 0, i32 0, i64 2), ptr %8, align 8
  %10 = getelementptr inbounds i8, ptr %8, i64 24
  store ptr %7, ptr %10, align 8
  ret ptr %8

11:                                               ; preds = %1
  %12 = landingpad { ptr, i32 }
          cleanup
  tail call void @_ZdlPv(ptr noundef nonnull %8) #18
  resume { ptr, i32 } %12
}